; Function Attrs: nounwind uwtable
define internal range(i32 -1, 1) i32 @H5HF__sect_row_init_cls(ptr noundef captures(none) %0, ptr noundef %1) #0 {
  %3 = load i8, ptr @H5HF_init_g, align 1, !tbaa !3, !range !7, !noundef !8
  %4 = trunc nuw i8 %3 to i1
  %5 = load i8, ptr @H5_libterm_g, align 1, !range !7
  %6 = trunc nuw i8 %5 to i1
  %7 = xor i1 %6, true
  %8 = select i1 %4, i1 true, i1 %7
  br i1 %8, label %9, label %38, !prof !9

9:                                                ; preds = %2
  %10 = tail call noalias dereferenceable_or_null(8) ptr @malloc(i64 noundef 8) #14
  %11 = icmp eq ptr %10, null
  br i1 %11, label %12, label %16

12:                                               ; preds = %9
  %13 = load i64, ptr @H5E_RESOURCE_g, align 8, !tbaa !18
  %14 = load i64, ptr @H5E_NOSPACE_g, align 8, !tbaa !18
  %15 = tail call i32 (ptr, ptr, i32, i64, i64, ptr, ...) @H5E_printf_stack(ptr noundef nonnull @.str, ptr noundef nonnull @__func__.H5FS__sect_init_cls, i32 noundef 300, i64 noundef %13, i64 noundef %14, ptr noundef nonnull @.str.35) #13
  br label %24

16:                                               ; preds = %9
  store ptr %1, ptr %10, align 8, !tbaa !12
  %17 = getelementptr inbounds nuw i8, ptr %0, i64 24
  store ptr %10, ptr %17, align 8, !tbaa !60
  %18 = tail call i32 @H5HF__hdr_incr(ptr noundef %1) #13
  %19 = icmp slt i32 %18, 0
  br i1 %19, label %20, label %H5FS__sect_init_cls.exit

20:                                               ; preds = %16
  %21 = load i64, ptr @H5E_HEAP_g, align 8, !tbaa !18
  %22 = load i64, ptr @H5E_CANTINC_g, align 8, !tbaa !18
  %23 = tail call i32 (ptr, ptr, i32, i64, i64, ptr, ...) @H5E_printf_stack(ptr noundef nonnull @.str, ptr noundef nonnull @__func__.H5FS__sect_init_cls, i32 noundef 306, i64 noundef %21, i64 noundef %22, ptr noundef nonnull @.str.36) #13
  br label %24

24:                                               ; preds = %12, %20
  %25 = load i64, ptr @H5E_HEAP_g, align 8, !tbaa !18
  %26 = load i64, ptr @H5E_CANTINIT_g, align 8, !tbaa !18
  %27 = tail call i32 (ptr, ptr, i32, i64, i64, ptr, ...) @H5E_printf_stack(ptr noundef nonnull @.str, ptr noundef nonnull @__func__.H5HF__sect_row_init_cls, i32 noundef 1494, i64 noundef %25, i64 noundef %26, ptr noundef nonnull @.str.34) #13
  br label %38

H5FS__sect_init_cls.exit:                         ; preds = %16
  %28 = load i32, ptr %0, align 8, !tbaa !62
  %29 = icmp eq i32 %28, 1
  br i1 %29, label %30, label %36

30:                                               ; preds = %H5FS__sect_init_cls.exit
  %31 = getelementptr inbounds nuw i8, ptr %1, i64 697
  %32 = load i8, ptr %31, align 1, !tbaa !50
  %33 = zext i8 %32 to i64
  %34 = add nuw nsw i64 %33, 6
  %35 = getelementptr inbounds nuw i8, ptr %0, i64 8
  store i64 %34, ptr %35, align 8, !tbaa !63
  br label %38

36:                                               ; preds = %H5FS__sect_init_cls.exit
  %37 = getelementptr inbounds nuw i8, ptr %0, i64 8
  store i64 0, ptr %37, align 8, !tbaa !63
  br label %38

38:                                               ; preds = %24, %36, %30, %2
  %.0 = phi i32 [ -1, %24 ], [ 0, %30 ], [ 0, %36 ], [ 0, %2 ]
  ret i32 %.0
}